; Function Attrs: mustprogress nofree norecurse nosync nounwind willreturn memory(argmem: read) uwtable
define dso_local noundef range(i32 0, 256) i32 @_ZNK4Luau7CodeGen3X6416IrCallWrapperX6415getRegisterUsesENS1_11RegisterX64E(ptr noundef nonnull readonly align 8 captures(none) dereferenceable(240) %0, i8 %1) local_unnamed_addr #8 align 2 {
  %3 = and i8 %1, 7
  switch i8 %3, label %4 [
    i8 5, label %.sink.split
    i8 0, label %11
  ]

4:                                                ; preds = %2
  br label %.sink.split

.sink.split:                                      ; preds = %2, %4
  %.sink = phi i64 [ 208, %4 ], [ 224, %2 ]
  %5 = getelementptr inbounds nuw i8, ptr %0, i64 %.sink
  %6 = lshr i8 %1, 3
  %7 = zext nneg i8 %6 to i64
  %8 = getelementptr inbounds nuw [16 x i8], ptr %5, i64 0, i64 %7
  %9 = load i8, ptr %8, align 1, !tbaa !26
  %10 = zext i8 %9 to i32
  br label %11

11:                                               ; preds = %.sink.split, %2
  %.shrunk = phi i32 [ 0, %2 ], [ %10, %.sink.split ]
  ret i32 %.shrunk
}